target datalayout = "e-m:e-p270:32:32-p271:32:32-p272:64:64-i64:64-i128:128-f80:128-n8:16:32:64-S128"
target triple = "x86_64-pc-linux-gnu"

%struct.AVBitStreamFilter = type { ptr, ptr, ptr }
%struct.AVBSFContext = type { ptr, ptr, ptr, ptr, ptr, %struct.AVRational, %struct.AVRational }
%struct.AVRational = type { i32, i32 }
%struct.AVBSFList = type { ptr, i32 }
%struct.AVOption = type { ptr, ptr, i32, i32, %union.anon.0, double, double, i32, ptr }
%union.anon.0 = type { i64 }

@.str.8 = private unnamed_addr constant [2 x i8] c"=\00", align 1
@.str.9 = private unnamed_addr constant [2 x i8] c":\00", align 1

; Function Attrs: nounwind uwtable
define i32 @av_bsf_list_append(ptr noundef %0, ptr noundef %1) #0 {
  %3 = alloca ptr, align 8
  %4 = alloca ptr, align 8
  store ptr %0, ptr %3, align 8, !tbaa !67
  store ptr %1, ptr %4, align 8, !tbaa !10
  %5 = load ptr, ptr %3, align 8, !tbaa !67
  %6 = getelementptr inbounds nuw %struct.AVBSFList, ptr %5, i32 0, i32 0
  %7 = load ptr, ptr %3, align 8, !tbaa !67
  %8 = getelementptr inbounds nuw %struct.AVBSFList, ptr %7, i32 0, i32 1
  %9 = load ptr, ptr %4, align 8, !tbaa !10
  %10 = call i32 @av_dynarray_add_nofree(ptr noundef %6, ptr noundef %8, ptr noundef %9)
  ret i32 %10
}

; Function Attrs: nounwind uwtable
define internal i32 @bsf_list_append_internal(ptr noundef %0, ptr noundef %1, ptr noundef %2, ptr noundef %3) #0 {
  %5 = alloca i32, align 4
  %6 = alloca ptr, align 8
  %7 = alloca ptr, align 8
  %8 = alloca ptr, align 8
  %9 = alloca ptr, align 8
  %10 = alloca i32, align 4
  %11 = alloca ptr, align 8
  %12 = alloca ptr, align 8
  %13 = alloca i32, align 4
  %14 = alloca ptr, align 8
  %15 = alloca [2 x ptr], align 16
  store ptr %0, ptr %6, align 8, !tbaa !67
  store ptr %1, ptr %7, align 8, !tbaa !73
  store ptr %2, ptr %8, align 8, !tbaa !73
  store ptr %3, ptr %9, align 8, !tbaa !74
  call void @llvm.lifetime.start.p0(i64 4, ptr %10) #6
  call void @llvm.lifetime.start.p0(i64 8, ptr %11) #6
  call void @llvm.lifetime.start.p0(i64 8, ptr %12) #6
  %16 = load ptr, ptr %7, align 8, !tbaa !73
  %17 = call ptr @av_bsf_get_by_name(ptr noundef %16)
  store ptr %17, ptr %11, align 8, !tbaa !27
  %18 = load ptr, ptr %11, align 8, !tbaa !27
  %19 = icmp ne ptr %18, null
  br i1 %19, label %21, label %20

20:                                               ; preds = %4
  store i32 -1179861752, ptr %5, align 4
  store i32 1, ptr %13, align 4
  br label %83

21:                                               ; preds = %4
  %22 = load ptr, ptr %11, align 8, !tbaa !27
  %23 = call i32 @av_bsf_alloc(ptr noundef %22, ptr noundef %12)
  store i32 %23, ptr %10, align 4, !tbaa !31
  %24 = load i32, ptr %10, align 4, !tbaa !31
  %25 = icmp slt i32 %24, 0
  br i1 %25, label %26, label %28

26:                                               ; preds = %21
  %27 = load i32, ptr %10, align 4, !tbaa !31
  store i32 %27, ptr %5, align 4
  store i32 1, ptr %13, align 4
  br label %83

28:                                               ; preds = %21
  %29 = load ptr, ptr %8, align 8, !tbaa !73
  %30 = icmp ne ptr %29, null
  br i1 %30, label %31, label %62

31:                                               ; preds = %28
  %32 = load ptr, ptr %11, align 8, !tbaa !27
  %33 = getelementptr inbounds nuw %struct.AVBitStreamFilter, ptr %32, i32 0, i32 2
  %34 = load ptr, ptr %33, align 8, !tbaa !26
  %35 = icmp ne ptr %34, null
  br i1 %35, label %36, label %62

36:                                               ; preds = %31
  call void @llvm.lifetime.start.p0(i64 8, ptr %14) #6
  %37 = load ptr, ptr %12, align 8, !tbaa !10
  %38 = getelementptr inbounds nuw %struct.AVBSFContext, ptr %37, i32 0, i32 2
  %39 = load ptr, ptr %38, align 8, !tbaa !14
  %40 = call ptr @av_opt_next(ptr noundef %39, ptr noundef null)
  store ptr %40, ptr %14, align 8, !tbaa !76
  call void @llvm.lifetime.start.p0(i64 16, ptr %15) #6
  call void @llvm.memset.p0.i64(ptr align 16 %15, i8 0, i64 16, i1 false)
  %41 = load ptr, ptr %14, align 8, !tbaa !76
  %42 = icmp ne ptr %41, null
  br i1 %42, label %43, label %48

43:                                               ; preds = %36
  %44 = load ptr, ptr %14, align 8, !tbaa !76
  %45 = getelementptr inbounds nuw %struct.AVOption, ptr %44, i32 0, i32 0
  %46 = load ptr, ptr %45, align 8, !tbaa !78
  %47 = getelementptr inbounds [2 x ptr], ptr %15, i64 0, i64 0
  store ptr %46, ptr %47, align 16, !tbaa !73
  br label %48

48:                                               ; preds = %43, %36
  %49 = load ptr, ptr %12, align 8, !tbaa !10
  %50 = getelementptr inbounds nuw %struct.AVBSFContext, ptr %49, i32 0, i32 2
  %51 = load ptr, ptr %50, align 8, !tbaa !14
  %52 = load ptr, ptr %8, align 8, !tbaa !73
  %53 = getelementptr inbounds [2 x ptr], ptr %15, i64 0, i64 0
  %54 = call i32 @av_opt_set_from_string(ptr noundef %51, ptr noundef %52, ptr noundef %53, ptr noundef @.str.8, ptr noundef @.str.9)
  store i32 %54, ptr %10, align 4, !tbaa !31
  %55 = load i32, ptr %10, align 4, !tbaa !31
  %56 = icmp slt i32 %55, 0
  br i1 %56, label %57, label %58

57:                                               ; preds = %48
  store i32 2, ptr %13, align 4
  br label %59

58:                                               ; preds = %48
  store i32 0, ptr %13, align 4
  br label %59

59:                                               ; preds = %57, %58
  call void @llvm.lifetime.end.p0(i64 16, ptr %15) #6
  call void @llvm.lifetime.end.p0(i64 8, ptr %14) #6
  %60 = load i32, ptr %13, align 4
  switch i32 %60, label %83 [
    i32 0, label %61
    i32 2, label %77
  ]

61:                                               ; preds = %59
  br label %62

62:                                               ; preds = %61, %31, %28
  %63 = load ptr, ptr %9, align 8, !tbaa !74
  %64 = icmp ne ptr %63, null
  br i1 %64, label %65, label %73

65:                                               ; preds = %62
  %66 = load ptr, ptr %12, align 8, !tbaa !10
  %67 = load ptr, ptr %9, align 8, !tbaa !74
  %68 = call i32 @av_opt_set_dict2(ptr noundef %66, ptr noundef %67, i32 noundef 1)
  store i32 %68, ptr %10, align 4, !tbaa !31
  %69 = load i32, ptr %10, align 4, !tbaa !31
  %70 = icmp slt i32 %69, 0
  br i1 %70, label %71, label %72

71:                                               ; preds = %65
  br label %77

72:                                               ; preds = %65
  br label %73

73:                                               ; preds = %72, %62
  %74 = load ptr, ptr %6, align 8, !tbaa !67
  %75 = load ptr, ptr %12, align 8, !tbaa !10
  %76 = call i32 @av_bsf_list_append(ptr noundef %74, ptr noundef %75)
  store i32 %76, ptr %10, align 4, !tbaa !31
  br label %77

77:                                               ; preds = %73, %59, %71
  %78 = load i32, ptr %10, align 4, !tbaa !31
  %79 = icmp slt i32 %78, 0
  br i1 %79, label %80, label %81

80:                                               ; preds = %77
  call void @av_bsf_free(ptr noundef %12)
  br label %81

81:                                               ; preds = %80, %77
  %82 = load i32, ptr %10, align 4, !tbaa !31
  store i32 %82, ptr %5, align 4
  store i32 1, ptr %13, align 4
  br label %83

83:                                               ; preds = %81, %59, %26, %20
  call void @llvm.lifetime.end.p0(i64 8, ptr %12) #6
  call void @llvm.lifetime.end.p0(i64 8, ptr %11) #6
  call void @llvm.lifetime.end.p0(i64 4, ptr %10) #6
  %84 = load i32, ptr %5, align 4
  ret i32 %84
}

; Function Attrs: nounwind uwtable
define i32 @av_bsf_list_append2(ptr noundef %0, ptr noundef %1, ptr noundef %2) #0 {
  %4 = alloca ptr, align 8
  %5 = alloca ptr, align 8
  %6 = alloca ptr, align 8
  store ptr %0, ptr %4, align 8, !tbaa !67
  store ptr %1, ptr %5, align 8, !tbaa !73
  store ptr %2, ptr %6, align 8, !tbaa !74
  %7 = load ptr, ptr %4, align 8, !tbaa !67
  %8 = load ptr, ptr %5, align 8, !tbaa !73
  %9 = load ptr, ptr %6, align 8, !tbaa !74
  %10 = call i32 @bsf_list_append_internal(ptr noundef %7, ptr noundef %8, ptr noundef null, ptr noundef %9)
  ret i32 %10
}