; Function Attrs: nounwind uwtable
define i32 @av_bsf_list_append2(ptr noundef %0, ptr noundef %1, ptr noundef %2) local_unnamed_addr #0 {
  %4 = alloca ptr, align 8
  call void @llvm.lifetime.start.p0(i64 8, ptr nonnull %4) #6
  %5 = tail call ptr @av_bsf_get_by_name(ptr noundef %1) #6
  %.not.i = icmp eq ptr %5, null
  br i1 %.not.i, label %bsf_list_append_internal.exit, label %6

6:                                                ; preds = %3
  %7 = call i32 @av_bsf_alloc(ptr noundef nonnull %5, ptr noundef nonnull %4)
  %8 = icmp slt i32 %7, 0
  br i1 %8, label %bsf_list_append_internal.exit, label %9

9:                                                ; preds = %6
  %.pre.pre.i = load ptr, ptr %4, align 8, !tbaa !4
  %.not29.i = icmp eq ptr %2, null
  br i1 %.not29.i, label %13, label %10

10:                                               ; preds = %9
  %11 = tail call i32 @av_opt_set_dict2(ptr noundef %.pre.pre.i, ptr noundef nonnull %2, i32 noundef 1) #6
  %12 = icmp slt i32 %11, 0
  br i1 %12, label %.thread.i, label %13

13:                                               ; preds = %10, %9
  %14 = getelementptr inbounds nuw i8, ptr %0, i64 8
  %15 = tail call i32 @av_dynarray_add_nofree(ptr noundef %0, ptr noundef nonnull %14, ptr noundef %.pre.pre.i) #6
  %16 = icmp slt i32 %15, 0
  br i1 %16, label %.thread.i, label %bsf_list_append_internal.exit

.thread.i:                                        ; preds = %13, %10
  %.01931.i = phi i32 [ %15, %13 ], [ %11, %10 ]
  call void @av_bsf_free(ptr noundef nonnull %4)
  br label %bsf_list_append_internal.exit

bsf_list_append_internal.exit:                    ; preds = %3, %6, %13, %.thread.i
  %.0.i = phi i32 [ -1179861752, %3 ], [ %7, %6 ], [ %.01931.i, %.thread.i ], [ %15, %13 ]
  call void @llvm.lifetime.end.p0(i64 8, ptr nonnull %4) #6
  ret i32 %.0.i
}